; Function Attrs: mustprogress nounwind uwtable
define dso_local void @_ZN4node20EmbedderSnapshotData8FromFileEP8_IO_FILE(ptr noalias nocapture writeonly sret(%"class.std::unique_ptr.368") align 8 %agg.result, ptr noundef %in) local_unnamed_addr #3 align 2 {
entry:
  %ref.tmp = alloca %"class.std::vector.392", align 8
  call void @_ZN4node12ReadFileSyncEP8_IO_FILE(ptr nonnull sret(%"class.std::vector.392") align 8 %ref.tmp, ptr noundef %in) #22
  call void @_ZN4node20EmbedderSnapshotData8FromBlobERKSt6vectorIcSaIcEE(ptr sret(%"class.std::unique_ptr.368") align 8 %agg.result, ptr noundef nonnull align 8 dereferenceable(24) %ref.tmp)
  %0 = load ptr, ptr %ref.tmp, align 8
  %tobool.not.i.i.i = icmp eq ptr %0, null
  br i1 %tobool.not.i.i.i, label %_ZNSt6vectorIcSaIcEED2Ev.exit, label %if.then.i.i.i

if.then.i.i.i:                                    ; preds = %entry
  call void @_ZdlPv(ptr noundef nonnull %0) #26
  br label %_ZNSt6vectorIcSaIcEED2Ev.exit

_ZNSt6vectorIcSaIcEED2Ev.exit:                    ; preds = %entry, %if.then.i.i.i
  call void @_ZNSaIcED2Ev(ptr noundef nonnull align 1 dereferenceable(1) %ref.tmp) #22
  ret void
}